; Function Attrs: mustprogress nofree norecurse nosync nounwind willreturn memory(argmem: readwrite) uwtable
define void @lv_indev_stop_processing(ptr noundef captures(address_is_null) %0) local_unnamed_addr #4 {
  %2 = icmp eq ptr %0, null
  br i1 %2, label %7, label %3

3:                                                ; preds = %1
  %4 = getelementptr inbounds nuw i8, ptr %0, i64 28
  %5 = load i8, ptr %4, align 4
  %6 = or i8 %5, 16
  store i8 %6, ptr %4, align 4
  br label %7

7:                                                ; preds = %1, %3
  ret void
}